target datalayout = "e-m:e-p270:32:32-p271:32:32-p272:64:64-i64:64-i128:128-f80:128-n8:16:32:64-S128"
target triple = "x86_64-pc-linux-gnu"

%struct.AVProbeData = type { ptr, ptr, i32, ptr }

@tedcaptions_read_probe.tags = internal constant [5 x ptr] [ptr @.str.7, ptr @.str.8, ptr @.str.9, ptr @.str.10, ptr @.str.11], align 16
@.str.12 = private unnamed_addr constant [5 x i8] c" \09\0D\0A\00", align 1

; Function Attrs: cold nounwind optsize uwtable
define internal i32 @tedcaptions_read_probe(ptr noundef %0) #0 {
  %2 = alloca i32, align 4
  %3 = alloca ptr, align 8
  %4 = alloca i32, align 4
  %5 = alloca i32, align 4
  %6 = alloca ptr, align 8
  %7 = alloca i32, align 4
  store ptr %0, ptr %3, align 8, !tbaa !4
  call void @llvm.lifetime.start.p0(i64 4, ptr %4) #8
  call void @llvm.lifetime.start.p0(i64 4, ptr %5) #8
  store i32 0, ptr %5, align 4, !tbaa !9
  call void @llvm.lifetime.start.p0(i64 8, ptr %6) #8
  %8 = load ptr, ptr %3, align 8, !tbaa !4
  %9 = getelementptr inbounds nuw %struct.AVProbeData, ptr %8, i32 0, i32 1
  %10 = load ptr, ptr %9, align 8, !tbaa !11
  %11 = load ptr, ptr %3, align 8, !tbaa !4
  %12 = getelementptr inbounds nuw %struct.AVProbeData, ptr %11, i32 0, i32 1
  %13 = load ptr, ptr %12, align 8, !tbaa !11
  %14 = call i64 @strspn(ptr noundef %13, ptr noundef @.str.12) #9
  %15 = getelementptr inbounds nuw i8, ptr %10, i64 %14
  %16 = load i8, ptr %15, align 1, !tbaa !14
  %17 = zext i8 %16 to i32
  %18 = icmp ne i32 %17, 123
  br i1 %18, label %19, label %20

19:                                               ; preds = %1
  store i32 0, ptr %2, align 4
  store i32 1, ptr %7, align 4
  br label %70

20:                                               ; preds = %1
  store i32 0, ptr %4, align 4, !tbaa !9
  br label %21

21:                                               ; preds = %56, %20
  %22 = load i32, ptr %4, align 4, !tbaa !9
  %23 = zext i32 %22 to i64
  %24 = icmp ult i64 %23, 5
  br i1 %24, label %25, label %59

25:                                               ; preds = %21
  %26 = load ptr, ptr %3, align 8, !tbaa !4
  %27 = getelementptr inbounds nuw %struct.AVProbeData, ptr %26, i32 0, i32 1
  %28 = load ptr, ptr %27, align 8, !tbaa !11
  %29 = load i32, ptr %4, align 4, !tbaa !9
  %30 = zext i32 %29 to i64
  %31 = getelementptr inbounds nuw [5 x ptr], ptr @tedcaptions_read_probe.tags, i64 0, i64 %30
  %32 = load ptr, ptr %31, align 8, !tbaa !15
  %33 = call ptr @strstr(ptr noundef %28, ptr noundef %32) #9
  store ptr %33, ptr %6, align 8, !tbaa !15
  %34 = icmp ne ptr %33, null
  br i1 %34, label %36, label %35

35:                                               ; preds = %25
  br label %56

36:                                               ; preds = %25
  %37 = load i32, ptr %4, align 4, !tbaa !9
  %38 = zext i32 %37 to i64
  %39 = getelementptr inbounds nuw [5 x ptr], ptr @tedcaptions_read_probe.tags, i64 0, i64 %38
  %40 = load ptr, ptr %39, align 8, !tbaa !15
  %41 = call i64 @strlen(ptr noundef %40) #9
  %42 = load ptr, ptr %6, align 8, !tbaa !15
  %43 = getelementptr inbounds nuw i8, ptr %42, i64 %41
  store ptr %43, ptr %6, align 8, !tbaa !15
  %44 = load ptr, ptr %6, align 8, !tbaa !15
  %45 = call i64 @strspn(ptr noundef %44, ptr noundef @.str.12) #9
  %46 = load ptr, ptr %6, align 8, !tbaa !15
  %47 = getelementptr inbounds nuw i8, ptr %46, i64 %45
  store ptr %47, ptr %6, align 8, !tbaa !15
  %48 = load ptr, ptr %6, align 8, !tbaa !15
  %49 = load i8, ptr %48, align 1, !tbaa !14
  %50 = sext i8 %49 to i32
  %51 = icmp eq i32 %50, 58
  br i1 %51, label %52, label %55

52:                                               ; preds = %36
  %53 = load i32, ptr %5, align 4, !tbaa !9
  %54 = add i32 %53, 1
  store i32 %54, ptr %5, align 4, !tbaa !9
  br label %55

55:                                               ; preds = %52, %36
  br label %56

56:                                               ; preds = %55, %35
  %57 = load i32, ptr %4, align 4, !tbaa !9
  %58 = add i32 %57, 1
  store i32 %58, ptr %4, align 4, !tbaa !9
  br label %21, !llvm.loop !16

59:                                               ; preds = %21
  %60 = load i32, ptr %5, align 4, !tbaa !9
  %61 = zext i32 %60 to i64
  %62 = icmp eq i64 %61, 5
  br i1 %62, label %63, label %64

63:                                               ; preds = %59
  br label %68

64:                                               ; preds = %59
  %65 = load i32, ptr %5, align 4, !tbaa !9
  %66 = icmp ne i32 %65, 0
  %67 = select i1 %66, i32 50, i32 0
  br label %68

68:                                               ; preds = %64, %63
  %69 = phi i32 [ 100, %63 ], [ %67, %64 ]
  store i32 %69, ptr %2, align 4
  store i32 1, ptr %7, align 4
  br label %70

70:                                               ; preds = %68, %19
  call void @llvm.lifetime.end.p0(i64 8, ptr %6) #8
  call void @llvm.lifetime.end.p0(i64 4, ptr %5) #8
  call void @llvm.lifetime.end.p0(i64 4, ptr %4) #8
  %71 = load i32, ptr %2, align 4
  ret i32 %71
}