; Function Attrs: cold nofree norecurse nounwind optsize memory(read, inaccessiblemem: none) uwtable
define internal range(i32 0, 101) i32 @tedcaptions_read_probe(ptr noundef readonly captures(none) %0) #0 {
  %2 = getelementptr inbounds nuw i8, ptr %0, i64 8
  %3 = load ptr, ptr %2, align 8, !tbaa !4
  %4 = tail call i64 @strspn(ptr noundef %3, ptr noundef nonnull @.str.12) #6
  %5 = getelementptr inbounds nuw i8, ptr %3, i64 %4
  %6 = load i8, ptr %5, align 1, !tbaa !11
  %.not = icmp eq i8 %6, 123
  br i1 %.not, label %.preheader, label %23

.preheader:                                       ; preds = %1, %18
  %indvars.iv = phi i64 [ %indvars.iv.next, %18 ], [ 0, %1 ]
  %.021 = phi i32 [ %.1, %18 ], [ 0, %1 ]
  %7 = getelementptr inbounds nuw [5 x ptr], ptr @tedcaptions_read_probe.tags, i64 0, i64 %indvars.iv
  %8 = load ptr, ptr %7, align 8, !tbaa !12
  %9 = tail call ptr @strstr(ptr noundef nonnull dereferenceable(1) %3, ptr noundef nonnull dereferenceable(1) %8) #6
  %.not19 = icmp eq ptr %9, null
  br i1 %.not19, label %18, label %10

10:                                               ; preds = %.preheader
  %11 = tail call i64 @strlen(ptr noundef nonnull dereferenceable(1) %8) #6
  %12 = getelementptr inbounds nuw i8, ptr %9, i64 %11
  %13 = tail call i64 @strspn(ptr noundef nonnull %12, ptr noundef nonnull @.str.12) #6
  %14 = getelementptr inbounds nuw i8, ptr %12, i64 %13
  %15 = load i8, ptr %14, align 1, !tbaa !11
  %16 = icmp eq i8 %15, 58
  %17 = zext i1 %16 to i32
  %spec.select = add i32 %.021, %17
  br label %18

18:                                               ; preds = %10, %.preheader
  %.1 = phi i32 [ %.021, %.preheader ], [ %spec.select, %10 ]
  %indvars.iv.next = add nuw nsw i64 %indvars.iv, 1
  %exitcond.not = icmp eq i64 %indvars.iv.next, 5
  br i1 %exitcond.not, label %19, label %.preheader, !llvm.loop !13

19:                                               ; preds = %18
  %20 = icmp eq i32 %.1, 5
  %.not18 = icmp eq i32 %.1, 0
  %21 = select i1 %.not18, i32 0, i32 50
  %22 = select i1 %20, i32 100, i32 %21
  br label %23

23:                                               ; preds = %1, %19
  %.015 = phi i32 [ %22, %19 ], [ 0, %1 ]
  ret i32 %.015
}